ccopy_reg
_reconstructor
p0
(cform
SignupForm
p1
c__builtin__
object
p2
Ntp3
Rp4
(dp5
S'city'
p6
g0
(cwtforms.fields.simple
TextField
p7
g2
Ntp8
Rp9
(dp10
S'errors'
p11
(lp12
sS'description'
p13
V
p14
sS'short_name'
p15
g6
sS'default'
p16
NsS'data'
p17
VFort Collins
p18
sS'process_errors'
p19
(lp20
sS'label'
p21
g0
(cwtforms.fields.core
Label
p22
g2
Ntp23
Rp24
(dp25
S'text'
p26
g6
sS'field_id'
p27
g6
sbsS'flags'
p28
g0
(cwtforms.fields.core
Flags
p29
g2
Ntp30
Rp31
sS'filters'
p32
(tsS'validators'
p33
(lp34
sS'raw_data'
p35
(lp36
g18
asS'object_data'
p37
NsS'type'
p38
S'TextField'
p39
sS'id'
p40
g6
sS'name'
p41
g6
sbsS'csrf_token'
p42
g0
(cwtforms.ext.csrf.fields
CSRFTokenField
p43
g2
Ntp44
Rp45
(dp46
g11
(lp47
sg13
g14
sg15
g42
sg16
Nsg17
V1396392402.33##74ef4ef342948cd249cc72909cb83a7e948f26f5
p48
sS'current_token'
p49
S'1396392406.12##b20bae1c4cffa999131e4de4755fd00d76faa3f9'
p50
sg19
(lp51
sg21
g0
(g22
g2
Ntp52
Rp53
(dp54
g26
VCsrf Token
p55
sg27
g42
sbsg28
g0
(g29
g2
Ntp56
Rp57
sg32
(tsg33
(lp58
sg35
(lp59
g48
asg37
Nsg38
S'CSRFTokenField'
p60
sg40
g42
sg41
g42
sbsS'password'
p61
g0
(g7
g2
Ntp62
Rp63
(dp64
g11
(lp65
sg13
g14
sg15
g61
sg16
Nsg17
V45
p66
sg19
(lp67
sg21
g0
(g22
g2
Ntp68
Rp69
(dp70
g26
g61
sg27
g61
sbsg28
g0
(g29
g2
Ntp71
Rp72
(dp73
S'required'
p74
I01
sbsg32
(tsg33
(lp75
g0
(cwtforms.validators
Required
p76
g2
Ntp77
Rp78
(dp79
S'message'
p80
Nsbasg35
(lp81
g66
asg37
Nsg38
g39
sg40
g61
sg41
g61
sbsS'firstname'
p82
g0
(g7
g2
Ntp83
Rp84
(dp85
g11
(lp86
sg13
g14
sg15
g82
sg16
Nsg17
VJohn
p87
sg19
(lp88
sg21
g0
(g22
g2
Ntp89
Rp90
(dp91
g26
g82
sg27
g82
sbsg28
g0
(g29
g2
Ntp92
Rp93
sg32
(tsg33
(lp94
sg35
(lp95
g87
asg37
Nsg38
g39
sg40
g82
sg41
g82
sbsS'signin_remember'
p96
g0
(cwtforms.fields.core
BooleanField
p97
g2
Ntp98
Rp99
(dp100
g11
(lp101
sg13
g14
sg15
g96
sg16
I00
sg17
I00
sg19
(lp102
sg21
g0
(g22
g2
Ntp103
Rp104
(dp105
g26
g96
sg27
g96
sbsg28
g0
(g29
g2
Ntp106
Rp107
sg32
(tsg33
(lp108
sg35
(lp109
sg37
I00
sg38
S'BooleanField'
p110
sg40
g96
sg41
g96
sbsS'lastname'
p111
g0
(g7
g2
Ntp112
Rp113
(dp114
g11
(lp115
sg13
g14
sg15
g111
sg16
Nsg17
VMarks
p116
sg19
(lp117
sg21
g0
(g22
g2
Ntp118
Rp119
(dp120
g26
g111
sg27
g111
sbsg28
g0
(g29
g2
Ntp121
Rp122
sg32
(tsg33
(lp123
sg35
(lp124
g116
asg37
Nsg38
g39
sg40
g111
sg41
g111
sbsS'_prefix'
p125
S''
p126
sS'zipcode'
p127
g0
(g7
g2
Ntp128
Rp129
(dp130
g11
(lp131
sg13
g14
sg15
g127
sg16
Nsg17
V80528
p132
sg19
(lp133
sg21
g0
(g22
g2
Ntp134
Rp135
(dp136
g26
g127
sg27
g127
sbsg28
g0
(g29
g2
Ntp137
Rp138
sg32
(tsg33
(lp139
g0
(cwtforms.validators
Length
p140
g2
Ntp141
Rp142
(dp143
S'max'
p144
I5
sg80
NsS'min'
p145
I5
sbasg35
(lp146
g132
asg37
Nsg38
g39
sg40
g127
sg41
g127
sbsS'email'
p147
g0
(g7
g2
Ntp148
Rp149
(dp150
g11
(lp151
sg13
g14
sg15
g147
sg16
Nsg17
Vjohnmarksjr@gmail.com
p152
sg19
(lp153
sg21
g0
(g22
g2
Ntp154
Rp155
(dp156
g26
g147
sg27
g147
sbsg28
g0
(g29
g2
Ntp157
Rp158
(dp159
g74
I01
sbsg32
(tsg33
(lp160
g0
(g76
g2
Ntp161
Rp162
(dp163
g80
Nsbasg35
(lp164
g152
asg37
Nsg38
g39
sg40
g147
sg41
g147
sbsS'state'
p165
g0
(g7
g2
Ntp166
Rp167
(dp168
g11
(lp169
sg13
g14
sg15
g165
sg16
Nsg17
VCO
p170
sg19
(lp171
sg21
g0
(g22
g2
Ntp172
Rp173
(dp174
g26
g165
sg27
g165
sbsg28
g0
(g29
g2
Ntp175
Rp176
sg32
(tsg33
(lp177
sg35
(lp178
g170
asg37
Nsg38
g39
sg40
g165
sg41
g165
sbsS'gender'
p179
g0
(g97
g2
Ntp180
Rp181
(dp182
g11
(lp183
sg13
g14
sg15
g179
sg16
I00
sg17
I00
sg19
(lp184
sg21
g0
(g22
g2
Ntp185
Rp186
(dp187
g26
g179
sg27
g179
sbsg28
g0
(g29
g2
Ntp188
Rp189
sg32
(tsg33
(lp190
sg35
(lp191
sg37
I00
sg38
g110
sg40
g179
sg41
g179
sbsS'SECRET_KEY'
p192
NsS'_fields'
p193
(dp194
g6
g9
sg42
g45
sg82
g84
sg96
g99
sg111
g113
sg127
g129
sg165
g167
sg179
g181
sg61
g63
sg147
g149
ssS'csrf_enabled'
p195
I01
sS'_errors'
p196
Nsb.